target datalayout = "e-m:e-p270:32:32-p271:32:32-p272:64:64-i64:64-i128:128-f80:128-n8:16:32:64-S128"
target triple = "x86_64-pc-linux-gnu"

%struct.expert_field = type { i32, i32 }
%struct._packet_info = type { ptr, ptr, i32, i32, %struct.nstime_t, %struct.nstime_t, %struct.nstime_t, i8, ptr, ptr, ptr, ptr, %struct._address, %struct._address, %struct._address, %struct._address, %struct._address, %struct._address, i32, ptr, i8, [3 x i8], %struct.anon, i32, i32, i32, i32, ptr, i8, ptr, ptr, i16, i16, i32, i32, i16, i32, i32, ptr, ptr, ptr, i8, i8, i16, i16, i16, i32, i16, i16, ptr, ptr, ptr, ptr, ptr, i32, i32 }
%struct.nstime_t = type { i64, i32 }
%struct._address = type { i32, i32, ptr, ptr }
%struct.anon = type { i8, [3 x i8] }
%struct._proto_node = type { ptr, ptr, ptr, ptr, ptr, ptr, ptr }
%struct.field_info = type { ptr, i32, i32, i32, i32, i32, i32, ptr, ptr, ptr, i32, i32 }

@hf_ip_dst = internal global i32 0, align 4
@hf_ip_dst_host = internal global i32 0, align 4
@hf_ip_addr = internal global i32 0, align 4
@hf_ip_host = internal global i32 0, align 4
@hf_ip_opt_ptr = internal global i32 0, align 4
@hf_ip_rec_rt = internal global i32 0, align 4
@hf_ip_rec_rt_host = internal global i32 0, align 4
@hf_ip_src_rt = internal global i32 0, align 4
@hf_ip_src_rt_host = internal global i32 0, align 4
@ett_ip_option_route = internal global i32 0, align 4
@ei_ip_opt_ptr_before_address = internal global %struct.expert_field zeroinitializer, align 4
@ei_ip_opt_ptr_middle_address = internal global %struct.expert_field zeroinitializer, align 4
@ei_ip_subopt_too_long = internal global %struct.expert_field zeroinitializer, align 4

; Function Attrs: inlinehint nounwind null_pointer_is_valid sspstrong uwtable
define internal void @proto_item_set_generated(ptr noundef %0) #6 {
  %2 = alloca ptr, align 8
  store ptr %0, ptr %2, align 8
  %3 = load ptr, ptr %2, align 8
  %4 = icmp ne ptr %3, null
  br i1 %4, label %5, label %24

5:                                                ; preds = %1
  br label %6

6:                                                ; preds = %5
  %7 = load ptr, ptr %2, align 8
  %8 = getelementptr inbounds nuw %struct._proto_node, ptr %7, i32 0, i32 5
  %9 = load ptr, ptr %8, align 8
  %10 = icmp ne ptr %9, null
  br i1 %10, label %11, label %22

11:                                               ; preds = %6
  %12 = load ptr, ptr %2, align 8
  %13 = getelementptr inbounds nuw %struct._proto_node, ptr %12, i32 0, i32 5
  %14 = load ptr, ptr %13, align 8
  %15 = getelementptr inbounds nuw %struct.field_info, ptr %14, i32 0, i32 6
  %16 = load i32, ptr %15, align 4
  %17 = or i32 %16, 2
  %18 = load ptr, ptr %2, align 8
  %19 = getelementptr inbounds nuw %struct._proto_node, ptr %18, i32 0, i32 5
  %20 = load ptr, ptr %19, align 8
  %21 = getelementptr inbounds nuw %struct.field_info, ptr %20, i32 0, i32 6
  store i32 %17, ptr %21, align 4
  br label %22

22:                                               ; preds = %11, %6
  br label %23

23:                                               ; preds = %22
  br label %24

24:                                               ; preds = %23, %1
  ret void
}

; Function Attrs: inlinehint nounwind null_pointer_is_valid sspstrong uwtable
define internal void @proto_item_set_hidden(ptr noundef %0) #6 {
  %2 = alloca ptr, align 8
  store ptr %0, ptr %2, align 8
  %3 = load ptr, ptr %2, align 8
  %4 = icmp ne ptr %3, null
  br i1 %4, label %5, label %24

5:                                                ; preds = %1
  br label %6

6:                                                ; preds = %5
  %7 = load ptr, ptr %2, align 8
  %8 = getelementptr inbounds nuw %struct._proto_node, ptr %7, i32 0, i32 5
  %9 = load ptr, ptr %8, align 8
  %10 = icmp ne ptr %9, null
  br i1 %10, label %11, label %22

11:                                               ; preds = %6
  %12 = load ptr, ptr %2, align 8
  %13 = getelementptr inbounds nuw %struct._proto_node, ptr %12, i32 0, i32 5
  %14 = load ptr, ptr %13, align 8
  %15 = getelementptr inbounds nuw %struct.field_info, ptr %14, i32 0, i32 6
  %16 = load i32, ptr %15, align 4
  %17 = or i32 %16, 1
  %18 = load ptr, ptr %2, align 8
  %19 = getelementptr inbounds nuw %struct._proto_node, ptr %18, i32 0, i32 5
  %20 = load ptr, ptr %19, align 8
  %21 = getelementptr inbounds nuw %struct.field_info, ptr %20, i32 0, i32 6
  store i32 %17, ptr %21, align 4
  br label %22

22:                                               ; preds = %11, %6
  br label %23

23:                                               ; preds = %22
  br label %24

24:                                               ; preds = %23, %1
  ret void
}

; Function Attrs: null_pointer_is_valid sspstrong uwtable
define internal i32 @dissect_ipopt_route(ptr noundef %0, ptr noundef %1, ptr noundef %2, i32 noundef %3, i32 noundef %4) #1 {
  %6 = alloca i32, align 4
  %7 = alloca ptr, align 8
  %8 = alloca ptr, align 8
  %9 = alloca ptr, align 8
  %10 = alloca i32, align 4
  %11 = alloca i32, align 4
  %12 = alloca ptr, align 8
  %13 = alloca ptr, align 8
  %14 = alloca i8, align 1
  %15 = alloca i8, align 1
  %16 = alloca i32, align 4
  %17 = alloca i32, align 4
  %18 = alloca i32, align 4
  %19 = alloca i32, align 4
  %20 = alloca ptr, align 8
  %21 = alloca i32, align 4
  %22 = alloca ptr, align 8
  store ptr %0, ptr %7, align 8
  store ptr %1, ptr %8, align 8
  store ptr %2, ptr %9, align 8
  store i32 %3, ptr %10, align 4
  store i32 %4, ptr %11, align 4
  call void @llvm.lifetime.start.p0(i64 8, ptr %12) #12
  call void @llvm.lifetime.start.p0(i64 8, ptr %13) #12
  call void @llvm.lifetime.start.p0(i64 1, ptr %14) #12
  call void @llvm.lifetime.start.p0(i64 1, ptr %15) #12
  call void @llvm.lifetime.start.p0(i64 4, ptr %16) #12
  store i32 0, ptr %16, align 4
  call void @llvm.lifetime.start.p0(i64 4, ptr %17) #12
  store i32 0, ptr %17, align 4
  call void @llvm.lifetime.start.p0(i64 4, ptr %18) #12
  %23 = load ptr, ptr %7, align 8
  %24 = call i32 @tvb_reported_length(ptr noundef %23)
  store i32 %24, ptr %18, align 4
  %25 = load ptr, ptr %9, align 8
  %26 = load ptr, ptr %8, align 8
  %27 = load ptr, ptr %7, align 8
  %28 = load i32, ptr %10, align 4
  %29 = load i32, ptr @ett_ip_option_route, align 4
  %30 = load i32, ptr %18, align 4
  %31 = call ptr @ip_var_option_header(ptr noundef %25, ptr noundef %26, ptr noundef %27, i32 noundef %28, i32 noundef %29, ptr noundef %13, i32 noundef %30)
  store ptr %31, ptr %12, align 8
  %32 = load ptr, ptr %7, align 8
  %33 = load i32, ptr %17, align 4
  %34 = add i32 %33, 2
  %35 = call zeroext i8 @tvb_get_uint8(ptr noundef %32, i32 noundef %34)
  store i8 %35, ptr %15, align 1
  %36 = load ptr, ptr %12, align 8
  %37 = load i32, ptr @hf_ip_opt_ptr, align 4
  %38 = load ptr, ptr %7, align 8
  %39 = load i32, ptr %17, align 4
  %40 = add i32 %39, 2
  %41 = call ptr @proto_tree_add_item(ptr noundef %36, i32 noundef %37, ptr noundef %38, i32 noundef %40, i32 noundef 1, i32 noundef 0)
  store ptr %41, ptr %13, align 8
  %42 = load i8, ptr %15, align 1
  %43 = zext i8 %42 to i32
  %44 = load i32, ptr %11, align 4
  %45 = add i32 %44, 1
  %46 = icmp slt i32 %43, %45
  br i1 %46, label %52, label %47

47:                                               ; preds = %5
  %48 = load i8, ptr %15, align 1
  %49 = zext i8 %48 to i32
  %50 = and i32 %49, 3
  %51 = icmp ne i32 %50, 0
  br i1 %51, label %52, label %68

52:                                               ; preds = %47, %5
  %53 = load i8, ptr %15, align 1
  %54 = zext i8 %53 to i32
  %55 = load i32, ptr %11, align 4
  %56 = add i32 %55, 1
  %57 = icmp slt i32 %54, %56
  br i1 %57, label %58, label %62

58:                                               ; preds = %52
  %59 = load ptr, ptr %8, align 8
  %60 = load ptr, ptr %13, align 8
  %61 = call ptr @expert_add_info(ptr noundef %59, ptr noundef %60, ptr noundef @ei_ip_opt_ptr_before_address)
  br label %66

62:                                               ; preds = %52
  %63 = load ptr, ptr %8, align 8
  %64 = load ptr, ptr %13, align 8
  %65 = call ptr @expert_add_info(ptr noundef %63, ptr noundef %64, ptr noundef @ei_ip_opt_ptr_middle_address)
  br label %66

66:                                               ; preds = %62, %58
  %67 = load i32, ptr %11, align 4
  store i32 %67, ptr %6, align 4
  store i32 1, ptr %19, align 4
  br label %212

68:                                               ; preds = %47
  %69 = load i32, ptr %18, align 4
  %70 = trunc i32 %69 to i8
  store i8 %70, ptr %14, align 1
  store i32 3, ptr %16, align 4
  %71 = load i32, ptr %18, align 4
  %72 = sub i32 %71, 3
  store i32 %72, ptr %18, align 4
  br label %73

73:                                               ; preds = %204, %68
  %74 = load i32, ptr %18, align 4
  %75 = icmp sgt i32 %74, 0
  br i1 %75, label %76, label %209

76:                                               ; preds = %73
  %77 = load i32, ptr %18, align 4
  %78 = icmp slt i32 %77, 4
  br i1 %78, label %79, label %83

79:                                               ; preds = %76
  %80 = load ptr, ptr %8, align 8
  %81 = load ptr, ptr %13, align 8
  %82 = call ptr @expert_add_info(ptr noundef %80, ptr noundef %81, ptr noundef @ei_ip_subopt_too_long)
  br label %209

83:                                               ; preds = %76
  %84 = load i8, ptr %15, align 1
  %85 = zext i8 %84 to i32
  %86 = load i8, ptr %14, align 1
  %87 = zext i8 %86 to i32
  %88 = icmp sgt i32 %85, %87
  br i1 %88, label %89, label %98

89:                                               ; preds = %83
  %90 = load ptr, ptr %12, align 8
  %91 = load ptr, ptr %8, align 8
  %92 = load ptr, ptr %7, align 8
  %93 = load i32, ptr %17, align 4
  %94 = load i32, ptr %16, align 4
  %95 = add i32 %93, %94
  %96 = load i32, ptr @hf_ip_rec_rt, align 4
  %97 = load i32, ptr @hf_ip_rec_rt_host, align 4
  call void @dissect_option_route(ptr noundef %90, ptr noundef %91, ptr noundef %92, i32 noundef %95, i32 noundef %96, i32 noundef %97, i1 noundef zeroext false)
  br label %203

98:                                               ; preds = %83
  %99 = load i32, ptr %16, align 4
  %100 = load i8, ptr %14, align 1
  %101 = zext i8 %100 to i32
  %102 = sub i32 %101, 4
  %103 = icmp eq i32 %99, %102
  br i1 %103, label %104, label %161

104:                                              ; preds = %98
  call void @llvm.lifetime.start.p0(i64 8, ptr %20) #12
  call void @llvm.lifetime.start.p0(i64 4, ptr %21) #12
  call void @llvm.lifetime.start.p0(i64 8, ptr %22) #12
  %105 = load ptr, ptr %7, align 8
  %106 = load i32, ptr %17, align 4
  %107 = load i32, ptr %16, align 4
  %108 = add i32 %106, %107
  %109 = call i32 @tvb_get_ipv4(ptr noundef %105, i32 noundef %108)
  store i32 %109, ptr %21, align 4
  %110 = load ptr, ptr %12, align 8
  %111 = load i32, ptr @hf_ip_dst, align 4
  %112 = load ptr, ptr %7, align 8
  %113 = load i32, ptr %17, align 4
  %114 = load i32, ptr %16, align 4
  %115 = add i32 %113, %114
  %116 = load i32, ptr %21, align 4
  %117 = call ptr @proto_tree_add_ipv4(ptr noundef %110, i32 noundef %111, ptr noundef %112, i32 noundef %115, i32 noundef 4, i32 noundef %116)
  %118 = load ptr, ptr %12, align 8
  %119 = load i32, ptr @hf_ip_addr, align 4
  %120 = load ptr, ptr %7, align 8
  %121 = load i32, ptr %17, align 4
  %122 = load i32, ptr %16, align 4
  %123 = add i32 %121, %122
  %124 = load i32, ptr %21, align 4
  %125 = call ptr @proto_tree_add_ipv4(ptr noundef %118, i32 noundef %119, ptr noundef %120, i32 noundef %123, i32 noundef 4, i32 noundef %124)
  store ptr %125, ptr %20, align 8
  %126 = load ptr, ptr %20, align 8
  call void @proto_item_set_hidden(ptr noundef %126)
  %127 = load ptr, ptr %12, align 8
  %128 = load i32, ptr @hf_ip_dst_host, align 4
  %129 = call zeroext i1 @proto_field_is_referenced(ptr noundef %127, i32 noundef %128)
  br i1 %129, label %134, label %130

130:                                              ; preds = %104
  %131 = load ptr, ptr %12, align 8
  %132 = load i32, ptr @hf_ip_host, align 4
  %133 = call zeroext i1 @proto_field_is_referenced(ptr noundef %131, i32 noundef %132)
  br i1 %133, label %134, label %160

134:                                              ; preds = %130, %104
  %135 = load ptr, ptr %8, align 8
  %136 = getelementptr inbounds nuw %struct._packet_info, ptr %135, i32 0, i32 51
  %137 = load ptr, ptr %136, align 8
  %138 = load i32, ptr %21, align 4
  %139 = call ptr @get_hostname_wmem(ptr noundef %137, i32 noundef %138)
  store ptr %139, ptr %22, align 8
  %140 = load ptr, ptr %12, align 8
  %141 = load i32, ptr @hf_ip_dst_host, align 4
  %142 = load ptr, ptr %7, align 8
  %143 = load i32, ptr %17, align 4
  %144 = load i32, ptr %16, align 4
  %145 = add i32 %143, %144
  %146 = load ptr, ptr %22, align 8
  %147 = call ptr @proto_tree_add_string(ptr noundef %140, i32 noundef %141, ptr noundef %142, i32 noundef %145, i32 noundef 4, ptr noundef %146)
  store ptr %147, ptr %20, align 8
  %148 = load ptr, ptr %20, align 8
  call void @proto_item_set_generated(ptr noundef %148)
  %149 = load ptr, ptr %20, align 8
  call void @proto_item_set_hidden(ptr noundef %149)
  %150 = load ptr, ptr %12, align 8
  %151 = load i32, ptr @hf_ip_host, align 4
  %152 = load ptr, ptr %7, align 8
  %153 = load i32, ptr %17, align 4
  %154 = load i32, ptr %16, align 4
  %155 = add i32 %153, %154
  %156 = load ptr, ptr %22, align 8
  %157 = call ptr @proto_tree_add_string(ptr noundef %150, i32 noundef %151, ptr noundef %152, i32 noundef %155, i32 noundef 4, ptr noundef %156)
  store ptr %157, ptr %20, align 8
  %158 = load ptr, ptr %20, align 8
  call void @proto_item_set_generated(ptr noundef %158)
  %159 = load ptr, ptr %20, align 8
  call void @proto_item_set_hidden(ptr noundef %159)
  br label %160

160:                                              ; preds = %134, %130
  call void @llvm.lifetime.end.p0(i64 8, ptr %22) #12
  call void @llvm.lifetime.end.p0(i64 4, ptr %21) #12
  call void @llvm.lifetime.end.p0(i64 8, ptr %20) #12
  br label %202

161:                                              ; preds = %98
  %162 = load i32, ptr %16, align 4
  %163 = add i32 %162, 1
  %164 = load i8, ptr %15, align 1
  %165 = zext i8 %164 to i32
  %166 = icmp slt i32 %163, %165
  br i1 %166, label %167, label %176

167:                                              ; preds = %161
  %168 = load ptr, ptr %12, align 8
  %169 = load ptr, ptr %8, align 8
  %170 = load ptr, ptr %7, align 8
  %171 = load i32, ptr %17, align 4
  %172 = load i32, ptr %16, align 4
  %173 = add i32 %171, %172
  %174 = load i32, ptr @hf_ip_rec_rt, align 4
  %175 = load i32, ptr @hf_ip_rec_rt_host, align 4
  call void @dissect_option_route(ptr noundef %168, ptr noundef %169, ptr noundef %170, i32 noundef %173, i32 noundef %174, i32 noundef %175, i1 noundef zeroext false)
  br label %201

176:                                              ; preds = %161
  %177 = load i32, ptr %16, align 4
  %178 = add i32 %177, 1
  %179 = load i8, ptr %15, align 1
  %180 = zext i8 %179 to i32
  %181 = icmp eq i32 %178, %180
  br i1 %181, label %182, label %191

182:                                              ; preds = %176
  %183 = load ptr, ptr %12, align 8
  %184 = load ptr, ptr %8, align 8
  %185 = load ptr, ptr %7, align 8
  %186 = load i32, ptr %17, align 4
  %187 = load i32, ptr %16, align 4
  %188 = add i32 %186, %187
  %189 = load i32, ptr @hf_ip_src_rt, align 4
  %190 = load i32, ptr @hf_ip_src_rt_host, align 4
  call void @dissect_option_route(ptr noundef %183, ptr noundef %184, ptr noundef %185, i32 noundef %188, i32 noundef %189, i32 noundef %190, i1 noundef zeroext true)
  br label %200

191:                                              ; preds = %176
  %192 = load ptr, ptr %12, align 8
  %193 = load ptr, ptr %8, align 8
  %194 = load ptr, ptr %7, align 8
  %195 = load i32, ptr %17, align 4
  %196 = load i32, ptr %16, align 4
  %197 = add i32 %195, %196
  %198 = load i32, ptr @hf_ip_src_rt, align 4
  %199 = load i32, ptr @hf_ip_src_rt_host, align 4
  call void @dissect_option_route(ptr noundef %192, ptr noundef %193, ptr noundef %194, i32 noundef %197, i32 noundef %198, i32 noundef %199, i1 noundef zeroext false)
  br label %200

200:                                              ; preds = %191, %182
  br label %201

201:                                              ; preds = %200, %167
  br label %202

202:                                              ; preds = %201, %160
  br label %203

203:                                              ; preds = %202, %89
  br label %204

204:                                              ; preds = %203
  %205 = load i32, ptr %18, align 4
  %206 = sub i32 %205, 4
  store i32 %206, ptr %18, align 4
  %207 = load i32, ptr %16, align 4
  %208 = add i32 %207, 4
  store i32 %208, ptr %16, align 4
  br label %73, !llvm.loop !23

209:                                              ; preds = %79, %73
  %210 = load ptr, ptr %7, align 8
  %211 = call i32 @tvb_captured_length(ptr noundef %210)
  store i32 %211, ptr %6, align 4
  store i32 1, ptr %19, align 4
  br label %212

212:                                              ; preds = %209, %66
  call void @llvm.lifetime.end.p0(i64 4, ptr %18) #12
  call void @llvm.lifetime.end.p0(i64 4, ptr %17) #12
  call void @llvm.lifetime.end.p0(i64 4, ptr %16) #12
  call void @llvm.lifetime.end.p0(i64 1, ptr %15) #12
  call void @llvm.lifetime.end.p0(i64 1, ptr %14) #12
  call void @llvm.lifetime.end.p0(i64 8, ptr %13) #12
  call void @llvm.lifetime.end.p0(i64 8, ptr %12) #12
  %213 = load i32, ptr %6, align 4
  ret i32 %213
}