; Function Attrs: null_pointer_is_valid sspstrong uwtable
define internal fastcc i32 @dissect_ipopt_route(ptr noundef %0, ptr noundef %1, ptr noundef %2, i32 noundef %3) unnamed_addr #1 {
  %5 = alloca ptr, align 8
  call void @llvm.lifetime.start.p0(i64 8, ptr nonnull %5) #9
  %6 = tail call i32 @tvb_reported_length(ptr noundef %0)
  %7 = load i32, ptr @ett_ip_option_route, align 4
  %8 = call fastcc ptr @ip_var_option_header(ptr noundef %2, ptr noundef %1, ptr noundef %0, i32 noundef %3, i32 noundef %7, ptr noundef nonnull %5, i32 noundef %6)
  %9 = tail call zeroext i8 @tvb_get_uint8(ptr noundef %0, i32 noundef 2)
  %.fr = freeze i8 %9
  %10 = load i32, ptr @hf_ip_opt_ptr, align 4
  %11 = tail call ptr @proto_tree_add_item(ptr noundef %8, i32 noundef %10, ptr noundef %0, i32 noundef 2, i32 noundef 1, i32 noundef 0)
  %12 = zext i8 %.fr to i32
  %13 = icmp ugt i8 %.fr, 3
  %14 = and i32 %12, 3
  %.not = icmp eq i32 %14, 0
  %or.cond = and i1 %13, %.not
  br i1 %or.cond, label %20, label %15

15:                                               ; preds = %4
  br i1 %13, label %18, label %16

16:                                               ; preds = %15
  %17 = tail call ptr @expert_add_info(ptr noundef %1, ptr noundef %11, ptr noundef nonnull @ei_ip_opt_ptr_before_address)
  br label %98

18:                                               ; preds = %15
  %19 = tail call ptr @expert_add_info(ptr noundef %1, ptr noundef %11, ptr noundef nonnull @ei_ip_opt_ptr_middle_address)
  br label %98

20:                                               ; preds = %4
  %21 = add i32 %6, -3
  %22 = icmp sgt i32 %21, 0
  br i1 %22, label %.lr.ph, label %.loopexit

.lr.ph:                                           ; preds = %20
  %23 = and i32 %6, 255
  %24 = icmp samesign ult i32 %23, %12
  %25 = add nsw i32 %23, -4
  %26 = getelementptr inbounds nuw i8, ptr %1, i64 408
  br i1 %24, label %.lr.ph.split.us, label %.lr.ph.split

.lr.ph.split.us:                                  ; preds = %.lr.ph, %proto_item_set_hidden.exit103.us
  %.087105.us = phi i32 [ %31, %proto_item_set_hidden.exit103.us ], [ 3, %.lr.ph ]
  %.088104.us = phi i32 [ %30, %proto_item_set_hidden.exit103.us ], [ %21, %.lr.ph ]
  %27 = icmp samesign ult i32 %.088104.us, 4
  br i1 %27, label %.split.us, label %proto_item_set_hidden.exit103.us

proto_item_set_hidden.exit103.us:                 ; preds = %.lr.ph.split.us
  %28 = load i32, ptr @hf_ip_rec_rt, align 4
  %29 = load i32, ptr @hf_ip_rec_rt_host, align 4
  tail call fastcc void @dissect_option_route(ptr noundef %8, ptr noundef %1, ptr noundef %0, i32 noundef %.087105.us, i32 noundef %28, i32 noundef %29, i1 noundef zeroext false)
  %30 = add nsw i32 %.088104.us, -4
  %31 = add nuw i32 %.087105.us, 4
  %.not116 = icmp eq i32 %.088104.us, 4
  br i1 %.not116, label %.loopexit, label %.lr.ph.split.us, !llvm.loop !23

.lr.ph.split:                                     ; preds = %.lr.ph, %proto_item_set_hidden.exit103
  %.087105 = phi i32 [ %96, %proto_item_set_hidden.exit103 ], [ 3, %.lr.ph ]
  %.088104 = phi i32 [ %95, %proto_item_set_hidden.exit103 ], [ %21, %.lr.ph ]
  %32 = icmp samesign ult i32 %.088104, 4
  br i1 %32, label %.split.us, label %34

.split.us:                                        ; preds = %.lr.ph.split, %.lr.ph.split.us
  %33 = tail call ptr @expert_add_info(ptr noundef %1, ptr noundef %11, ptr noundef nonnull @ei_ip_subopt_too_long)
  br label %.loopexit

34:                                               ; preds = %.lr.ph.split
  %35 = icmp eq i32 %.087105, %25
  br i1 %35, label %36, label %83

36:                                               ; preds = %34
  %37 = tail call i32 @tvb_get_ipv4(ptr noundef %0, i32 noundef %25)
  %38 = load i32, ptr @hf_ip_dst, align 4
  %39 = tail call ptr @proto_tree_add_ipv4(ptr noundef %8, i32 noundef %38, ptr noundef %0, i32 noundef %25, i32 noundef 4, i32 noundef %37)
  %40 = load i32, ptr @hf_ip_addr, align 4
  %41 = tail call ptr @proto_tree_add_ipv4(ptr noundef %8, i32 noundef %40, ptr noundef %0, i32 noundef %25, i32 noundef 4, i32 noundef %37)
  %.not.i = icmp eq ptr %41, null
  br i1 %.not.i, label %proto_item_set_hidden.exit, label %42

42:                                               ; preds = %36
  %43 = getelementptr inbounds nuw i8, ptr %41, i64 40
  %44 = load ptr, ptr %43, align 8
  %.not5.i = icmp eq ptr %44, null
  br i1 %.not5.i, label %proto_item_set_hidden.exit, label %45

45:                                               ; preds = %42
  %46 = getelementptr inbounds nuw i8, ptr %44, i64 28
  %47 = load i32, ptr %46, align 4
  %48 = or i32 %47, 1
  store i32 %48, ptr %46, align 4
  br label %proto_item_set_hidden.exit

proto_item_set_hidden.exit:                       ; preds = %36, %42, %45
  %49 = load i32, ptr @hf_ip_dst_host, align 4
  %50 = tail call zeroext i1 @proto_field_is_referenced(ptr noundef %8, i32 noundef %49)
  br i1 %50, label %54, label %51

51:                                               ; preds = %proto_item_set_hidden.exit
  %52 = load i32, ptr @hf_ip_host, align 4
  %53 = tail call zeroext i1 @proto_field_is_referenced(ptr noundef %8, i32 noundef %52)
  br i1 %53, label %54, label %proto_item_set_hidden.exit103

54:                                               ; preds = %51, %proto_item_set_hidden.exit
  %55 = load ptr, ptr %26, align 8
  %56 = tail call ptr @get_hostname_wmem(ptr noundef %55, i32 noundef %37)
  %57 = load i32, ptr @hf_ip_dst_host, align 4
  %58 = tail call ptr @proto_tree_add_string(ptr noundef %8, i32 noundef %57, ptr noundef %0, i32 noundef %25, i32 noundef 4, ptr noundef %56)
  %.not.i93 = icmp eq ptr %58, null
  br i1 %.not.i93, label %proto_item_set_hidden.exit97, label %59

59:                                               ; preds = %54
  %60 = getelementptr inbounds nuw i8, ptr %58, i64 40
  %61 = load ptr, ptr %60, align 8
  %.not5.i94 = icmp eq ptr %61, null
  br i1 %.not5.i94, label %proto_item_set_hidden.exit97, label %62

62:                                               ; preds = %59
  %63 = getelementptr inbounds nuw i8, ptr %61, i64 28
  %64 = load i32, ptr %63, align 4
  %65 = or i32 %64, 2
  store i32 %65, ptr %63, align 4
  %.pre = load ptr, ptr %60, align 8
  %.not5.i96 = icmp eq ptr %.pre, null
  br i1 %.not5.i96, label %proto_item_set_hidden.exit97, label %66

66:                                               ; preds = %62
  %67 = getelementptr inbounds nuw i8, ptr %.pre, i64 28
  %68 = load i32, ptr %67, align 4
  %69 = or i32 %68, 1
  store i32 %69, ptr %67, align 4
  br label %proto_item_set_hidden.exit97

proto_item_set_hidden.exit97:                     ; preds = %59, %54, %62, %66
  %70 = load i32, ptr @hf_ip_host, align 4
  %71 = tail call ptr @proto_tree_add_string(ptr noundef %8, i32 noundef %70, ptr noundef %0, i32 noundef %25, i32 noundef 4, ptr noundef %56)
  %.not.i98 = icmp eq ptr %71, null
  br i1 %.not.i98, label %proto_item_set_hidden.exit103, label %72

72:                                               ; preds = %proto_item_set_hidden.exit97
  %73 = getelementptr inbounds nuw i8, ptr %71, i64 40
  %74 = load ptr, ptr %73, align 8
  %.not5.i99 = icmp eq ptr %74, null
  br i1 %.not5.i99, label %proto_item_set_hidden.exit103, label %75

75:                                               ; preds = %72
  %76 = getelementptr inbounds nuw i8, ptr %74, i64 28
  %77 = load i32, ptr %76, align 4
  %78 = or i32 %77, 2
  store i32 %78, ptr %76, align 4
  %.pre109 = load ptr, ptr %73, align 8
  %.not5.i102 = icmp eq ptr %.pre109, null
  br i1 %.not5.i102, label %proto_item_set_hidden.exit103, label %79

79:                                               ; preds = %75
  %80 = getelementptr inbounds nuw i8, ptr %.pre109, i64 28
  %81 = load i32, ptr %80, align 4
  %82 = or i32 %81, 1
  store i32 %82, ptr %80, align 4
  br label %proto_item_set_hidden.exit103

83:                                               ; preds = %34
  %84 = add nuw i32 %.087105, 1
  %85 = icmp slt i32 %84, %12
  br i1 %85, label %86, label %89

86:                                               ; preds = %83
  %87 = load i32, ptr @hf_ip_rec_rt, align 4
  %88 = load i32, ptr @hf_ip_rec_rt_host, align 4
  tail call fastcc void @dissect_option_route(ptr noundef %8, ptr noundef %1, ptr noundef %0, i32 noundef %.087105, i32 noundef %87, i32 noundef %88, i1 noundef zeroext false)
  br label %proto_item_set_hidden.exit103

89:                                               ; preds = %83
  %90 = icmp eq i32 %84, %12
  %91 = load i32, ptr @hf_ip_src_rt, align 4
  %92 = load i32, ptr @hf_ip_src_rt_host, align 4
  br i1 %90, label %93, label %94

93:                                               ; preds = %89
  tail call fastcc void @dissect_option_route(ptr noundef %8, ptr noundef %1, ptr noundef %0, i32 noundef %.087105, i32 noundef %91, i32 noundef %92, i1 noundef zeroext true)
  br label %proto_item_set_hidden.exit103

94:                                               ; preds = %89
  tail call fastcc void @dissect_option_route(ptr noundef %8, ptr noundef %1, ptr noundef %0, i32 noundef %.087105, i32 noundef %91, i32 noundef %92, i1 noundef zeroext false)
  br label %proto_item_set_hidden.exit103

proto_item_set_hidden.exit103:                    ; preds = %72, %79, %75, %proto_item_set_hidden.exit97, %51, %86, %94, %93
  %95 = add nsw i32 %.088104, -4
  %96 = add nuw i32 %.087105, 4
  %.not115 = icmp eq i32 %.088104, 4
  br i1 %.not115, label %.loopexit, label %.lr.ph.split, !llvm.loop !23

.loopexit:                                        ; preds = %proto_item_set_hidden.exit103, %proto_item_set_hidden.exit103.us, %20, %.split.us
  %97 = tail call i32 @tvb_captured_length(ptr noundef %0)
  br label %98

98:                                               ; preds = %16, %18, %.loopexit
  %.0 = phi i32 [ %97, %.loopexit ], [ 3, %18 ], [ 3, %16 ]
  call void @llvm.lifetime.end.p0(i64 8, ptr nonnull %5) #9
  ret i32 %.0
}